target datalayout = "e-m:e-p270:32:32-p271:32:32-p272:64:64-i64:64-i128:128-f80:128-n8:16:32:64-S128"
target triple = "x86_64-pc-linux-gnu"

@simd_support = internal thread_local global i32 -1, align 4
@simd_huffman = internal thread_local global i32 1, align 4
@jconst_huff_encode_one_block = external constant [0 x i32], align 4

; Function Attrs: nounwind uwtable
define i32 @jsimd_can_huff_encode_one_block() #0 {
  %1 = alloca i32, align 4
  call void @init_simd()
  %2 = call align 4 ptr @llvm.threadlocal.address.p0(ptr align 4 @simd_support)
  %3 = load i32, ptr %2, align 4, !tbaa !3
  %4 = and i32 %3, 8
  %5 = icmp ne i32 %4, 0
  br i1 %5, label %6, label %14

6:                                                ; preds = %0
  %7 = call align 4 ptr @llvm.threadlocal.address.p0(ptr align 4 @simd_huffman)
  %8 = load i32, ptr %7, align 4, !tbaa !3
  %9 = icmp ne i32 %8, 0
  br i1 %9, label %10, label %14

10:                                               ; preds = %6
  %11 = and i64 ptrtoint (ptr @jconst_huff_encode_one_block to i64), 15
  %12 = icmp eq i64 %11, 0
  br i1 %12, label %13, label %14

13:                                               ; preds = %10
  store i32 1, ptr %1, align 4
  br label %15

14:                                               ; preds = %10, %6, %0
  store i32 0, ptr %1, align 4
  br label %15

15:                                               ; preds = %14, %13
  %16 = load i32, ptr %1, align 4
  ret i32 %16
}