; Function Attrs: nounwind uwtable
define range(i32 0, 2) i32 @jsimd_can_huff_encode_one_block() local_unnamed_addr #0 {
  tail call fastcc void @init_simd()
  %1 = tail call align 4 ptr @llvm.threadlocal.address.p0(ptr align 4 @simd_support)
  %2 = load i32, ptr %1, align 4, !tbaa !3
  %3 = and i32 %2, 8
  %4 = icmp ne i32 %3, 0
  %5 = tail call align 4 ptr @llvm.threadlocal.address.p0(ptr align 4 @simd_huffman)
  %6 = load i32, ptr %5, align 4
  %7 = icmp ne i32 %6, 0
  %or.cond = select i1 %4, i1 %7, i1 false
  %8 = and i64 ptrtoint (ptr @jconst_huff_encode_one_block to i64), 12
  %9 = icmp eq i64 %8, 0
  %or.cond4 = and i1 %9, %or.cond
  %. = zext i1 %or.cond4 to i32
  ret i32 %.
}